target datalayout = "e-m:e-p270:32:32-p271:32:32-p272:64:64-i64:64-i128:128-f80:128-n8:16:32:64-S128"
target triple = "x86_64-pc-linux-gnu"

%struct.DdManager = type { %struct.DdNode, ptr, ptr, ptr, ptr, ptr, ptr, ptr, i32, i32, double, double, double, i32, i32, i32, i32, i32, i32, ptr, ptr, %struct.DdSubtable, i32, i32, i32, i32, i32, i32, i32, double, i32, i32, i32, ptr, i64, double, i32, ptr, ptr, ptr, ptr, ptr, ptr, ptr, i32, ptr, ptr, ptr, ptr, ptr, ptr, i32, i32, i32, double, i32, i32, i32, i32, double, double, i32, i32, i32, i32, i32, i32, i32, i32, i32, ptr, ptr, i32, i32, i32, i32, i32, i32, ptr, ptr, ptr, ptr, ptr, ptr, ptr, ptr, i32, i64, i64, i64, i32, i64, i64, double, double, double, double, double, double, i32, ptr, ptr, i64 }
%struct.DdNode = type { i32, i32, ptr, %union.anon, i64 }
%union.anon = type { %struct.DdChildren }
%struct.DdChildren = type { ptr, ptr }
%struct.DdSubtable = type { ptr, i32, i32, i32, i32, i32, i32, i32, i32, i32, i32, i32 }

; Function Attrs: nounwind uwtable
define i32 @Extra_bddCountCubes(ptr noundef %0, ptr noundef %1, i32 noundef %2, i32 noundef %3, i32 noundef %4, ptr noundef %5) #0 {
  %7 = alloca ptr, align 8
  %8 = alloca ptr, align 8
  %9 = alloca i32, align 4
  %10 = alloca i32, align 4
  %11 = alloca i32, align 4
  %12 = alloca ptr, align 8
  %13 = alloca ptr, align 8
  %14 = alloca ptr, align 8
  %15 = alloca i32, align 4
  %16 = alloca i32, align 4
  %17 = alloca i32, align 4
  %18 = alloca i32, align 4
  %19 = alloca i32, align 4
  %20 = alloca ptr, align 8
  %21 = alloca i32, align 4
  store ptr %0, ptr %7, align 8, !tbaa !3
  store ptr %1, ptr %8, align 8, !tbaa !56
  store i32 %2, ptr %9, align 4, !tbaa !37
  store i32 %3, ptr %10, align 4, !tbaa !37
  store i32 %4, ptr %11, align 4, !tbaa !37
  store ptr %5, ptr %12, align 8, !tbaa !10
  call void @llvm.lifetime.start.p0(i64 8, ptr %13) #10
  call void @llvm.lifetime.start.p0(i64 8, ptr %14) #10
  call void @llvm.lifetime.start.p0(i64 4, ptr %15) #10
  call void @llvm.lifetime.start.p0(i64 4, ptr %16) #10
  call void @llvm.lifetime.start.p0(i64 4, ptr %17) #10
  call void @llvm.lifetime.start.p0(i64 4, ptr %18) #10
  call void @llvm.lifetime.start.p0(i64 4, ptr %19) #10
  store i32 0, ptr %19, align 4, !tbaa !37
  call void @llvm.lifetime.start.p0(i64 8, ptr %20) #10
  %22 = call ptr @st__init_table(ptr noundef @st__ptrcmp, ptr noundef @st__ptrhash)
  store ptr %22, ptr %20, align 8, !tbaa !30
  call void @llvm.lifetime.start.p0(i64 4, ptr %21) #10
  %23 = load ptr, ptr %7, align 8, !tbaa !3
  %24 = getelementptr inbounds nuw %struct.DdManager, ptr %23, i32 0, i32 27
  %25 = load i32, ptr %24, align 4, !tbaa !89
  store i32 %25, ptr %21, align 4, !tbaa !37
  %26 = load ptr, ptr %7, align 8, !tbaa !3
  %27 = getelementptr inbounds nuw %struct.DdManager, ptr %26, i32 0, i32 23
  %28 = load i32, ptr %27, align 4, !tbaa !90
  %29 = load ptr, ptr %7, align 8, !tbaa !3
  %30 = getelementptr inbounds nuw %struct.DdManager, ptr %29, i32 0, i32 25
  %31 = load i32, ptr %30, align 4, !tbaa !91
  %32 = sub i32 %28, %31
  %33 = add i32 %32, 1000000
  %34 = load ptr, ptr %7, align 8, !tbaa !3
  %35 = getelementptr inbounds nuw %struct.DdManager, ptr %34, i32 0, i32 27
  store i32 %33, ptr %35, align 4, !tbaa !89
  store i32 0, ptr %15, align 4, !tbaa !37
  br label %36

36:                                               ; preds = %162, %6
  %37 = load i32, ptr %15, align 4, !tbaa !37
  %38 = load i32, ptr %9, align 4, !tbaa !37
  %39 = icmp slt i32 %37, %38
  br i1 %39, label %40, label %165

40:                                               ; preds = %36
  %41 = load ptr, ptr %8, align 8, !tbaa !56
  %42 = load i32, ptr %15, align 4, !tbaa !37
  %43 = sext i32 %42 to i64
  %44 = getelementptr inbounds ptr, ptr %41, i64 %43
  %45 = load ptr, ptr %44, align 8, !tbaa !8
  %46 = icmp ne ptr %45, null
  br i1 %46, label %48, label %47

47:                                               ; preds = %40
  br label %162

48:                                               ; preds = %40
  store ptr null, ptr %13, align 8, !tbaa !8
  store ptr null, ptr %14, align 8, !tbaa !8
  %49 = load i32, ptr %11, align 4, !tbaa !37
  store i32 %49, ptr %18, align 4, !tbaa !37
  store i32 %49, ptr %17, align 4, !tbaa !37
  %50 = load i32, ptr %10, align 4, !tbaa !37
  %51 = icmp eq i32 %50, -1
  br i1 %51, label %55, label %52

52:                                               ; preds = %48
  %53 = load i32, ptr %10, align 4, !tbaa !37
  %54 = icmp eq i32 %53, 1
  br i1 %54, label %55, label %70

55:                                               ; preds = %52, %48
  %56 = load ptr, ptr %7, align 8, !tbaa !3
  %57 = load ptr, ptr %8, align 8, !tbaa !56
  %58 = load i32, ptr %15, align 4, !tbaa !37
  %59 = sext i32 %58 to i64
  %60 = getelementptr inbounds ptr, ptr %57, i64 %59
  %61 = load ptr, ptr %60, align 8, !tbaa !8
  %62 = load ptr, ptr %8, align 8, !tbaa !56
  %63 = load i32, ptr %15, align 4, !tbaa !37
  %64 = sext i32 %63 to i64
  %65 = getelementptr inbounds ptr, ptr %62, i64 %64
  %66 = load ptr, ptr %65, align 8, !tbaa !8
  %67 = load ptr, ptr %20, align 8, !tbaa !30
  %68 = load i32, ptr %11, align 4, !tbaa !37
  %69 = call ptr @extraBddCountCubes(ptr noundef %56, ptr noundef %61, ptr noundef %66, ptr noundef %67, ptr noundef %18, i32 noundef %68)
  store ptr %69, ptr %14, align 8, !tbaa !8
  br label %70

70:                                               ; preds = %55, %52
  %71 = load ptr, ptr %8, align 8, !tbaa !56
  %72 = load i32, ptr %15, align 4, !tbaa !37
  %73 = sext i32 %72 to i64
  %74 = getelementptr inbounds ptr, ptr %71, i64 %73
  %75 = load ptr, ptr %74, align 8, !tbaa !8
  %76 = ptrtoint ptr %75 to i64
  %77 = xor i64 %76, 1
  %78 = inttoptr i64 %77 to ptr
  %79 = load ptr, ptr %8, align 8, !tbaa !56
  %80 = load i32, ptr %15, align 4, !tbaa !37
  %81 = sext i32 %80 to i64
  %82 = getelementptr inbounds ptr, ptr %79, i64 %81
  store ptr %78, ptr %82, align 8, !tbaa !8
  %83 = load i32, ptr %10, align 4, !tbaa !37
  %84 = icmp eq i32 %83, -1
  br i1 %84, label %88, label %85

85:                                               ; preds = %70
  %86 = load i32, ptr %10, align 4, !tbaa !37
  %87 = icmp eq i32 %86, 0
  br i1 %87, label %88, label %103

88:                                               ; preds = %85, %70
  %89 = load ptr, ptr %7, align 8, !tbaa !3
  %90 = load ptr, ptr %8, align 8, !tbaa !56
  %91 = load i32, ptr %15, align 4, !tbaa !37
  %92 = sext i32 %91 to i64
  %93 = getelementptr inbounds ptr, ptr %90, i64 %92
  %94 = load ptr, ptr %93, align 8, !tbaa !8
  %95 = load ptr, ptr %8, align 8, !tbaa !56
  %96 = load i32, ptr %15, align 4, !tbaa !37
  %97 = sext i32 %96 to i64
  %98 = getelementptr inbounds ptr, ptr %95, i64 %97
  %99 = load ptr, ptr %98, align 8, !tbaa !8
  %100 = load ptr, ptr %20, align 8, !tbaa !30
  %101 = load i32, ptr %18, align 4, !tbaa !37
  %102 = call ptr @extraBddCountCubes(ptr noundef %89, ptr noundef %94, ptr noundef %99, ptr noundef %100, ptr noundef %17, i32 noundef %101)
  store ptr %102, ptr %13, align 8, !tbaa !8
  br label %103

103:                                              ; preds = %88, %85
  %104 = load ptr, ptr %8, align 8, !tbaa !56
  %105 = load i32, ptr %15, align 4, !tbaa !37
  %106 = sext i32 %105 to i64
  %107 = getelementptr inbounds ptr, ptr %104, i64 %106
  %108 = load ptr, ptr %107, align 8, !tbaa !8
  %109 = ptrtoint ptr %108 to i64
  %110 = xor i64 %109, 1
  %111 = inttoptr i64 %110 to ptr
  %112 = load ptr, ptr %8, align 8, !tbaa !56
  %113 = load i32, ptr %15, align 4, !tbaa !37
  %114 = sext i32 %113 to i64
  %115 = getelementptr inbounds ptr, ptr %112, i64 %114
  store ptr %111, ptr %115, align 8, !tbaa !8
  %116 = load ptr, ptr %14, align 8, !tbaa !8
  %117 = icmp ne ptr %116, null
  br i1 %117, label %122, label %118

118:                                              ; preds = %103
  %119 = load ptr, ptr %13, align 8, !tbaa !8
  %120 = icmp ne ptr %119, null
  br i1 %120, label %122, label %121

121:                                              ; preds = %118
  br label %165

122:                                              ; preds = %118, %103
  %123 = load ptr, ptr %13, align 8, !tbaa !8
  %124 = icmp ne ptr %123, null
  br i1 %124, label %131, label %125

125:                                              ; preds = %122
  %126 = load ptr, ptr %12, align 8, !tbaa !10
  %127 = load i32, ptr %15, align 4, !tbaa !37
  %128 = sext i32 %127 to i64
  %129 = getelementptr inbounds i32, ptr %126, i64 %128
  store i32 1, ptr %129, align 4, !tbaa !37
  %130 = load i32, ptr %18, align 4, !tbaa !37
  store i32 %130, ptr %16, align 4, !tbaa !37
  br label %158

131:                                              ; preds = %122
  %132 = load ptr, ptr %14, align 8, !tbaa !8
  %133 = icmp ne ptr %132, null
  br i1 %133, label %140, label %134

134:                                              ; preds = %131
  %135 = load ptr, ptr %12, align 8, !tbaa !10
  %136 = load i32, ptr %15, align 4, !tbaa !37
  %137 = sext i32 %136 to i64
  %138 = getelementptr inbounds i32, ptr %135, i64 %137
  store i32 0, ptr %138, align 4, !tbaa !37
  %139 = load i32, ptr %17, align 4, !tbaa !37
  store i32 %139, ptr %16, align 4, !tbaa !37
  br label %157

140:                                              ; preds = %131
  %141 = load i32, ptr %18, align 4, !tbaa !37
  %142 = load i32, ptr %17, align 4, !tbaa !37
  %143 = icmp sle i32 %141, %142
  br i1 %143, label %144, label %150

144:                                              ; preds = %140
  %145 = load ptr, ptr %12, align 8, !tbaa !10
  %146 = load i32, ptr %15, align 4, !tbaa !37
  %147 = sext i32 %146 to i64
  %148 = getelementptr inbounds i32, ptr %145, i64 %147
  store i32 1, ptr %148, align 4, !tbaa !37
  %149 = load i32, ptr %18, align 4, !tbaa !37
  store i32 %149, ptr %16, align 4, !tbaa !37
  br label %156

150:                                              ; preds = %140
  %151 = load ptr, ptr %12, align 8, !tbaa !10
  %152 = load i32, ptr %15, align 4, !tbaa !37
  %153 = sext i32 %152 to i64
  %154 = getelementptr inbounds i32, ptr %151, i64 %153
  store i32 0, ptr %154, align 4, !tbaa !37
  %155 = load i32, ptr %17, align 4, !tbaa !37
  store i32 %155, ptr %16, align 4, !tbaa !37
  br label %156

156:                                              ; preds = %150, %144
  br label %157

157:                                              ; preds = %156, %134
  br label %158

158:                                              ; preds = %157, %125
  %159 = load i32, ptr %16, align 4, !tbaa !37
  %160 = load i32, ptr %19, align 4, !tbaa !37
  %161 = add nsw i32 %160, %159
  store i32 %161, ptr %19, align 4, !tbaa !37
  br label %162

162:                                              ; preds = %158, %47
  %163 = load i32, ptr %15, align 4, !tbaa !37
  %164 = add nsw i32 %163, 1
  store i32 %164, ptr %15, align 4, !tbaa !37
  br label %36, !llvm.loop !92

165:                                              ; preds = %121, %36
  %166 = load i32, ptr %21, align 4, !tbaa !37
  %167 = load ptr, ptr %7, align 8, !tbaa !3
  %168 = getelementptr inbounds nuw %struct.DdManager, ptr %167, i32 0, i32 27
  store i32 %166, ptr %168, align 4, !tbaa !89
  %169 = load ptr, ptr %20, align 8, !tbaa !30
  call void @st__free_table(ptr noundef %169)
  %170 = load i32, ptr %15, align 4, !tbaa !37
  %171 = load i32, ptr %9, align 4, !tbaa !37
  %172 = icmp eq i32 %170, %171
  br i1 %172, label %173, label %175

173:                                              ; preds = %165
  %174 = load i32, ptr %19, align 4, !tbaa !37
  br label %176

175:                                              ; preds = %165
  br label %176

176:                                              ; preds = %175, %173
  %177 = phi i32 [ %174, %173 ], [ -1, %175 ]
  call void @llvm.lifetime.end.p0(i64 4, ptr %21) #10
  call void @llvm.lifetime.end.p0(i64 8, ptr %20) #10
  call void @llvm.lifetime.end.p0(i64 4, ptr %19) #10
  call void @llvm.lifetime.end.p0(i64 4, ptr %18) #10
  call void @llvm.lifetime.end.p0(i64 4, ptr %17) #10
  call void @llvm.lifetime.end.p0(i64 4, ptr %16) #10
  call void @llvm.lifetime.end.p0(i64 4, ptr %15) #10
  call void @llvm.lifetime.end.p0(i64 8, ptr %14) #10
  call void @llvm.lifetime.end.p0(i64 8, ptr %13) #10
  ret i32 %177
}