; Function Attrs: nounwind uwtable
define i32 @Extra_bddCountCubes(ptr noundef %0, ptr noundef captures(none) %1, i32 noundef %2, i32 noundef %3, i32 noundef %4, ptr noundef writeonly captures(none) %5) local_unnamed_addr #0 {
  %7 = alloca i32, align 4
  %8 = alloca i32, align 4
  call void @llvm.lifetime.start.p0(i64 4, ptr nonnull %7) #19
  call void @llvm.lifetime.start.p0(i64 4, ptr nonnull %8) #19
  %9 = tail call ptr @st__init_table(ptr noundef nonnull @st__ptrcmp, ptr noundef nonnull @st__ptrhash) #19
  %10 = getelementptr inbounds nuw i8, ptr %0, i64 244
  %11 = load i32, ptr %10, align 4, !tbaa !76
  %12 = getelementptr inbounds nuw i8, ptr %0, i64 228
  %13 = load i32, ptr %12, align 4, !tbaa !77
  %14 = getelementptr inbounds nuw i8, ptr %0, i64 236
  %15 = load i32, ptr %14, align 4, !tbaa !78
  %16 = add i32 %13, 1000000
  %17 = sub i32 %16, %15
  store i32 %17, ptr %10, align 4, !tbaa !76
  %18 = icmp sgt i32 %2, 0
  br i1 %18, label %.lr.ph, label %._crit_edge

.lr.ph:                                           ; preds = %6
  %19 = add i32 %3, 1
  %or.cond3 = icmp ult i32 %19, 2
  %wide.trip.count124 = zext nneg i32 %2 to i64
  br i1 %or.cond3, label %.lr.ph.split.us, label %.lr.ph.split

.lr.ph.split.us:                                  ; preds = %.lr.ph
  %cond = icmp eq i32 %3, -1
  br i1 %cond, label %.lr.ph.split.us.split.us, label %.lr.ph.split.us.split

.lr.ph.split.us.split.us:                         ; preds = %.lr.ph.split.us, %48
  %indvars.iv120 = phi i64 [ %indvars.iv.next121, %48 ], [ 0, %.lr.ph.split.us ]
  %.06072.us.us = phi i32 [ %.1.us.us, %48 ], [ 0, %.lr.ph.split.us ]
  %20 = getelementptr inbounds nuw ptr, ptr %1, i64 %indvars.iv120
  %21 = load ptr, ptr %20, align 8, !tbaa !25
  %.not.us.us = icmp eq ptr %21, null
  br i1 %.not.us.us, label %48, label %22

22:                                               ; preds = %.lr.ph.split.us.split.us
  store i32 %4, ptr %8, align 4, !tbaa !31
  store i32 %4, ptr %7, align 4, !tbaa !31
  %23 = call fastcc ptr @extraBddCountCubes(ptr noundef %0, ptr noundef nonnull %21, ptr noundef nonnull %21, ptr noundef %9, ptr noundef %8, i32 noundef %4)
  %24 = icmp ne ptr %23, null
  %25 = load ptr, ptr %20, align 8, !tbaa !25
  %26 = ptrtoint ptr %25 to i64
  %27 = xor i64 %26, 1
  %28 = inttoptr i64 %27 to ptr
  store ptr %28, ptr %20, align 8, !tbaa !25
  %29 = load i32, ptr %8, align 4, !tbaa !31
  %30 = call fastcc ptr @extraBddCountCubes(ptr noundef %0, ptr noundef %28, ptr noundef %28, ptr noundef %9, ptr noundef %7, i32 noundef %29)
  %31 = icmp ne ptr %30, null
  %32 = load ptr, ptr %20, align 8, !tbaa !25
  %33 = ptrtoint ptr %32 to i64
  %34 = xor i64 %33, 1
  %35 = inttoptr i64 %34 to ptr
  store ptr %35, ptr %20, align 8, !tbaa !25
  %or.cond5.us.us = select i1 %24, i1 true, i1 %31
  br i1 %or.cond5.us.us, label %36, label %._crit_edge.loopexit.split.loop.exit

36:                                               ; preds = %22
  br i1 %31, label %38, label %.thread67.us.us

.thread67.us.us:                                  ; preds = %36
  %37 = getelementptr inbounds nuw i32, ptr %5, i64 %indvars.iv120
  store i32 1, ptr %37, align 4, !tbaa !31
  br label %46

38:                                               ; preds = %36
  br i1 %24, label %41, label %39

39:                                               ; preds = %38
  %40 = getelementptr inbounds nuw i32, ptr %5, i64 %indvars.iv120
  store i32 0, ptr %40, align 4, !tbaa !31
  br label %46

41:                                               ; preds = %38
  %42 = load i32, ptr %7, align 4, !tbaa !31
  %.not63.us.us = icmp sgt i32 %29, %42
  %43 = getelementptr inbounds nuw i32, ptr %5, i64 %indvars.iv120
  br i1 %.not63.us.us, label %45, label %44

44:                                               ; preds = %41
  store i32 1, ptr %43, align 4, !tbaa !31
  br label %46

45:                                               ; preds = %41
  store i32 0, ptr %43, align 4, !tbaa !31
  br label %46

46:                                               ; preds = %45, %44, %39, %.thread67.us.us
  %.061.in.us.us = phi ptr [ %8, %44 ], [ %7, %45 ], [ %7, %39 ], [ %8, %.thread67.us.us ]
  %.061.us.us = load i32, ptr %.061.in.us.us, align 4, !tbaa !31
  %47 = add nsw i32 %.061.us.us, %.06072.us.us
  br label %48

48:                                               ; preds = %46, %.lr.ph.split.us.split.us
  %.1.us.us = phi i32 [ %47, %46 ], [ %.06072.us.us, %.lr.ph.split.us.split.us ]
  %indvars.iv.next121 = add nuw nsw i64 %indvars.iv120, 1
  %exitcond125.not = icmp eq i64 %indvars.iv.next121, %wide.trip.count124
  br i1 %exitcond125.not, label %._crit_edge, label %.lr.ph.split.us.split.us, !llvm.loop !79

.lr.ph.split.us.split:                            ; preds = %.lr.ph.split.us, %63
  %indvars.iv126 = phi i64 [ %indvars.iv.next127, %63 ], [ 0, %.lr.ph.split.us ]
  %.06072.us = phi i32 [ %.1.us, %63 ], [ 0, %.lr.ph.split.us ]
  %49 = getelementptr inbounds nuw ptr, ptr %1, i64 %indvars.iv126
  %50 = load ptr, ptr %49, align 8, !tbaa !25
  %.not.us = icmp eq ptr %50, null
  br i1 %.not.us, label %63, label %51

51:                                               ; preds = %.lr.ph.split.us.split
  store i32 %4, ptr %7, align 4, !tbaa !31
  %52 = ptrtoint ptr %50 to i64
  %53 = xor i64 %52, 1
  %54 = inttoptr i64 %53 to ptr
  store ptr %54, ptr %49, align 8, !tbaa !25
  %55 = call fastcc ptr @extraBddCountCubes(ptr noundef %0, ptr noundef %54, ptr noundef %54, ptr noundef %9, ptr noundef %7, i32 noundef %4)
  %.not105 = icmp eq ptr %55, null
  %56 = load ptr, ptr %49, align 8, !tbaa !25
  %57 = ptrtoint ptr %56 to i64
  %58 = xor i64 %57, 1
  %59 = inttoptr i64 %58 to ptr
  store ptr %59, ptr %49, align 8, !tbaa !25
  br i1 %.not105, label %._crit_edge.loopexit132.split.loop.exit, label %60

60:                                               ; preds = %51
  %61 = getelementptr inbounds nuw i32, ptr %5, i64 %indvars.iv126
  store i32 0, ptr %61, align 4, !tbaa !31
  %.061.us = load i32, ptr %7, align 4, !tbaa !31
  %62 = add nsw i32 %.061.us, %.06072.us
  br label %63

63:                                               ; preds = %60, %.lr.ph.split.us.split
  %.1.us = phi i32 [ %62, %60 ], [ %.06072.us, %.lr.ph.split.us.split ]
  %indvars.iv.next127 = add nuw nsw i64 %indvars.iv126, 1
  %exitcond130.not = icmp eq i64 %indvars.iv.next127, %wide.trip.count124
  br i1 %exitcond130.not, label %._crit_edge, label %.lr.ph.split.us.split, !llvm.loop !79

.lr.ph.split:                                     ; preds = %.lr.ph
  %cond131 = icmp eq i32 %3, 1
  br i1 %cond131, label %.lr.ph.split.split.us, label %.lr.ph.split.split

.lr.ph.split.split.us:                            ; preds = %.lr.ph.split, %69
  %indvars.iv = phi i64 [ %indvars.iv.next, %69 ], [ 0, %.lr.ph.split ]
  %.06072.us83 = phi i32 [ %.1.us89, %69 ], [ 0, %.lr.ph.split ]
  %64 = getelementptr inbounds nuw ptr, ptr %1, i64 %indvars.iv
  %65 = load ptr, ptr %64, align 8, !tbaa !25
  %.not.us85 = icmp eq ptr %65, null
  br i1 %.not.us85, label %69, label %.thread.us

.thread.us:                                       ; preds = %.lr.ph.split.split.us
  store i32 %4, ptr %8, align 4, !tbaa !31
  %66 = call fastcc ptr @extraBddCountCubes(ptr noundef %0, ptr noundef nonnull %65, ptr noundef nonnull %65, ptr noundef %9, ptr noundef %8, i32 noundef %4)
  %.not104 = icmp eq ptr %66, null
  br i1 %.not104, label %.thread._crit_edge, label %.thread67.us87

.thread67.us87:                                   ; preds = %.thread.us
  %67 = getelementptr inbounds nuw i32, ptr %5, i64 %indvars.iv
  store i32 1, ptr %67, align 4, !tbaa !31
  %.061.us88 = load i32, ptr %8, align 4, !tbaa !31
  %68 = add nsw i32 %.061.us88, %.06072.us83
  br label %69

69:                                               ; preds = %.thread67.us87, %.lr.ph.split.split.us
  %.1.us89 = phi i32 [ %68, %.thread67.us87 ], [ %.06072.us83, %.lr.ph.split.split.us ]
  %indvars.iv.next = add nuw nsw i64 %indvars.iv, 1
  %exitcond.not = icmp eq i64 %indvars.iv.next, %wide.trip.count124
  br i1 %exitcond.not, label %._crit_edge, label %.lr.ph.split.split.us, !llvm.loop !79

.lr.ph.split.split:                               ; preds = %.lr.ph.split, %72
  %indvars.iv115 = phi i64 [ %indvars.iv.next116, %72 ], [ 0, %.lr.ph.split ]
  %70 = getelementptr inbounds nuw ptr, ptr %1, i64 %indvars.iv115
  %71 = load ptr, ptr %70, align 8, !tbaa !25
  %.not = icmp eq ptr %71, null
  br i1 %.not, label %72, label %.thread._crit_edge

72:                                               ; preds = %.lr.ph.split.split
  %indvars.iv.next116 = add nuw nsw i64 %indvars.iv115, 1
  %exitcond119.not = icmp eq i64 %indvars.iv.next116, %wide.trip.count124
  br i1 %exitcond119.not, label %._crit_edge, label %.lr.ph.split.split, !llvm.loop !79

.thread._crit_edge:                               ; preds = %.lr.ph.split.split, %.thread.us
  %.us-phi.in = phi i64 [ %indvars.iv, %.thread.us ], [ %indvars.iv115, %.lr.ph.split.split ]
  %.us-phi90 = phi i32 [ %.06072.us83, %.thread.us ], [ 0, %.lr.ph.split.split ]
  %.us-phi = trunc i64 %.us-phi.in to i32
  br label %._crit_edge

._crit_edge.loopexit.split.loop.exit:             ; preds = %22
  %73 = trunc nuw nsw i64 %indvars.iv120 to i32
  br label %._crit_edge

._crit_edge.loopexit132.split.loop.exit:          ; preds = %51
  %74 = trunc nuw nsw i64 %indvars.iv126 to i32
  br label %._crit_edge

._crit_edge:                                      ; preds = %72, %69, %63, %48, %._crit_edge.loopexit132.split.loop.exit, %._crit_edge.loopexit.split.loop.exit, %.thread._crit_edge, %6
  %.062.lcssa = phi i32 [ %.us-phi, %.thread._crit_edge ], [ 0, %6 ], [ %73, %._crit_edge.loopexit.split.loop.exit ], [ %74, %._crit_edge.loopexit132.split.loop.exit ], [ %2, %48 ], [ %2, %63 ], [ %2, %69 ], [ %2, %72 ]
  %.060.lcssa = phi i32 [ %.us-phi90, %.thread._crit_edge ], [ 0, %6 ], [ %.06072.us.us, %._crit_edge.loopexit.split.loop.exit ], [ %.06072.us, %._crit_edge.loopexit132.split.loop.exit ], [ %.1.us.us, %48 ], [ %.1.us, %63 ], [ %.1.us89, %69 ], [ 0, %72 ]
  store i32 %11, ptr %10, align 4, !tbaa !76
  tail call void @st__free_table(ptr noundef %9) #19
  %75 = icmp eq i32 %.062.lcssa, %2
  %76 = select i1 %75, i32 %.060.lcssa, i32 -1
  call void @llvm.lifetime.end.p0(i64 4, ptr nonnull %8) #19
  call void @llvm.lifetime.end.p0(i64 4, ptr nonnull %7) #19
  ret i32 %76
}